; Function Attrs: nofree norecurse nosync nounwind memory(readwrite, inaccessiblemem: none) uwtable
define internal void @SDL_Blit_ARGB8888_ARGB8888_Modulate_Scale(ptr noundef captures(none) %0) #0 {
  %2 = getelementptr inbounds nuw i8, ptr %0, i64 112
  %3 = load i32, ptr %2, align 8
  %4 = getelementptr inbounds nuw i8, ptr %0, i64 120
  %5 = load i8, ptr %4, align 8
  %6 = zext i8 %5 to i32
  %7 = getelementptr inbounds nuw i8, ptr %0, i64 121
  %8 = load i8, ptr %7, align 1
  %9 = zext i8 %8 to i32
  %10 = getelementptr inbounds nuw i8, ptr %0, i64 122
  %11 = load i8, ptr %10, align 2
  %12 = zext i8 %11 to i32
  %13 = getelementptr inbounds nuw i8, ptr %0, i64 123
  %14 = load i8, ptr %13, align 1
  %15 = zext i8 %14 to i32
  %16 = getelementptr inbounds nuw i8, ptr %0, i64 20
  %17 = load i32, ptr %16, align 4
  %18 = sext i32 %17 to i64
  %19 = shl nsw i64 %18, 16
  %20 = getelementptr inbounds nuw i8, ptr %0, i64 52
  %21 = load i32, ptr %20, align 4
  %22 = sext i32 %21 to i64
  %23 = udiv i64 %19, %22
  %24 = getelementptr inbounds nuw i8, ptr %0, i64 16
  %25 = load i32, ptr %24, align 8
  %26 = sext i32 %25 to i64
  %27 = shl nsw i64 %26, 16
  %28 = getelementptr inbounds nuw i8, ptr %0, i64 48
  %29 = load i32, ptr %28, align 8
  %30 = sext i32 %29 to i64
  %31 = udiv i64 %27, %30
  %32 = add nsw i32 %21, -1
  store i32 %32, ptr %20, align 4
  %.not77 = icmp eq i32 %21, 0
  br i1 %.not77, label %._crit_edge81, label %.lr.ph80

.lr.ph80:                                         ; preds = %1
  %33 = getelementptr inbounds nuw i8, ptr %0, i64 40
  %34 = lshr i64 %31, 1
  %35 = getelementptr inbounds nuw i8, ptr %0, i64 8
  %36 = getelementptr inbounds nuw i8, ptr %0, i64 24
  %37 = and i32 %3, 1
  %.not72 = icmp eq i32 %37, 0
  %38 = and i32 %3, 2
  %.not73 = icmp eq i32 %38, 0
  %39 = getelementptr inbounds nuw i8, ptr %0, i64 56
  %40 = icmp eq i32 %29, 0
  br i1 %40, label %.lr.ph80.split.us, label %.lr.ph80.split.preheader

.lr.ph80.split.preheader:                         ; preds = %.lr.ph80
  %41 = lshr i64 %23, 1
  br label %.lr.ph80.split

.lr.ph80.split.us:                                ; preds = %.lr.ph80
  %42 = load i32, ptr %39, align 8
  %43 = sext i32 %42 to i64
  %.promoted = load ptr, ptr %33, align 8
  %44 = zext i32 %21 to i64
  %45 = mul nsw i64 %44, %43
  %scevgep = getelementptr i8, ptr %.promoted, i64 %45
  store ptr %scevgep, ptr %33, align 8
  store i32 -1, ptr %20, align 4
  br label %._crit_edge81

.lr.ph80.split:                                   ; preds = %.lr.ph80.split.preheader, %._crit_edge
  %.06978 = phi i64 [ %126, %._crit_edge ], [ %41, %.lr.ph80.split.preheader ]
  %46 = load i32, ptr %28, align 8
  %47 = lshr i64 %.06978, 16
  %.not7174 = icmp eq i32 %46, 0
  br i1 %.not7174, label %._crit_edge, label %.lr.ph

.lr.ph:                                           ; preds = %.lr.ph80.split
  %48 = add nsw i32 %46, -1
  %49 = load ptr, ptr %33, align 8
  br i1 %.not72, label %.lr.ph.split.us, label %.lr.ph.split

.lr.ph.split.us:                                  ; preds = %.lr.ph, %69
  %50 = phi i32 [ %75, %69 ], [ %48, %.lr.ph ]
  %.06776.us = phi ptr [ %74, %69 ], [ %49, %.lr.ph ]
  %.07075.us = phi i64 [ %73, %69 ], [ %34, %.lr.ph ]
  %51 = load ptr, ptr %35, align 8
  %52 = load i32, ptr %36, align 8
  %53 = sext i32 %52 to i64
  %54 = mul i64 %47, %53
  %55 = getelementptr inbounds nuw i8, ptr %51, i64 %54
  %56 = lshr i64 %.07075.us, 14
  %57 = and i64 %56, 1125899906842620
  %58 = getelementptr inbounds nuw i8, ptr %55, i64 %57
  %59 = load i32, ptr %58, align 4
  %60 = lshr i32 %59, 24
  br i1 %.not73, label %69, label %61

61:                                               ; preds = %.lr.ph.split.us
  %62 = mul nuw nsw i32 %60, %15
  %63 = add nuw nsw i32 %62, 1
  %64 = lshr i32 %63, 8
  %65 = and i32 %64, 255
  %66 = add nuw nsw i32 %65, %63
  %67 = lshr i32 %66, 8
  %68 = and i32 %67, 255
  br label %69

69:                                               ; preds = %61, %.lr.ph.split.us
  %.068.us = phi i32 [ %68, %61 ], [ %60, %.lr.ph.split.us ]
  %70 = shl nuw i32 %.068.us, 24
  %71 = and i32 %59, 16777215
  %72 = or disjoint i32 %70, %71
  store i32 %72, ptr %.06776.us, align 4
  %73 = add i64 %.07075.us, %31
  %74 = getelementptr inbounds nuw i8, ptr %.06776.us, i64 4
  %75 = add nsw i32 %50, -1
  %.not71.us = icmp eq i32 %50, 0
  br i1 %.not71.us, label %._crit_edge, label %.lr.ph.split.us, !llvm.loop !153

.lr.ph.split:                                     ; preds = %.lr.ph, %115
  %76 = phi i32 [ %125, %115 ], [ %48, %.lr.ph ]
  %.06776 = phi ptr [ %124, %115 ], [ %49, %.lr.ph ]
  %.07075 = phi i64 [ %123, %115 ], [ %34, %.lr.ph ]
  %77 = load ptr, ptr %35, align 8
  %78 = load i32, ptr %36, align 8
  %79 = sext i32 %78 to i64
  %80 = mul i64 %47, %79
  %81 = getelementptr inbounds nuw i8, ptr %77, i64 %80
  %82 = lshr i64 %.07075, 14
  %83 = and i64 %82, 1125899906842620
  %84 = getelementptr inbounds nuw i8, ptr %81, i64 %83
  %85 = load i32, ptr %84, align 4
  %86 = lshr i32 %85, 16
  %87 = and i32 %86, 255
  %88 = lshr i32 %85, 8
  %89 = and i32 %88, 255
  %90 = and i32 %85, 255
  %91 = lshr i32 %85, 24
  %92 = mul nuw nsw i32 %87, %6
  %93 = add nuw nsw i32 %92, 1
  %94 = mul nuw nsw i32 %89, %9
  %95 = add nuw nsw i32 %94, 1
  %96 = lshr i32 %95, 8
  %97 = and i32 %96, 255
  %98 = add nuw nsw i32 %97, %95
  %99 = and i32 %98, 65280
  %100 = mul nuw nsw i32 %90, %12
  %101 = add nuw nsw i32 %100, 1
  %102 = lshr i32 %101, 8
  %103 = and i32 %102, 255
  %104 = add nuw nsw i32 %103, %101
  %105 = lshr i32 %104, 8
  %106 = and i32 %105, 255
  br i1 %.not73, label %115, label %107

107:                                              ; preds = %.lr.ph.split
  %108 = mul nuw nsw i32 %91, %15
  %109 = add nuw nsw i32 %108, 1
  %110 = lshr i32 %109, 8
  %111 = and i32 %110, 255
  %112 = add nuw nsw i32 %111, %109
  %113 = lshr i32 %112, 8
  %114 = and i32 %113, 255
  br label %115

115:                                              ; preds = %107, %.lr.ph.split
  %.068 = phi i32 [ %114, %107 ], [ %91, %.lr.ph.split ]
  %116 = shl nuw i32 %.068, 24
  %117 = shl nuw nsw i32 %93, 8
  %.mask = and i32 %93, 65280
  %118 = add nuw nsw i32 %.mask, %117
  %119 = and i32 %118, 16711680
  %120 = or disjoint i32 %116, %119
  %121 = or disjoint i32 %120, %99
  %122 = or disjoint i32 %121, %106
  store i32 %122, ptr %.06776, align 4
  %123 = add i64 %.07075, %31
  %124 = getelementptr inbounds nuw i8, ptr %.06776, i64 4
  %125 = add nsw i32 %76, -1
  %.not71 = icmp eq i32 %76, 0
  br i1 %.not71, label %._crit_edge, label %.lr.ph.split, !llvm.loop !153

._crit_edge:                                      ; preds = %115, %69, %.lr.ph80.split
  %126 = add i64 %.06978, %23
  %127 = load i32, ptr %39, align 8
  %128 = load ptr, ptr %33, align 8
  %129 = sext i32 %127 to i64
  %130 = getelementptr inbounds i8, ptr %128, i64 %129
  store ptr %130, ptr %33, align 8
  %131 = load i32, ptr %20, align 4
  %132 = add nsw i32 %131, -1
  store i32 %132, ptr %20, align 4
  %.not = icmp eq i32 %131, 0
  br i1 %.not, label %._crit_edge81, label %.lr.ph80.split, !llvm.loop !154

._crit_edge81:                                    ; preds = %._crit_edge, %.lr.ph80.split.us, %1
  ret void
}